target datalayout = "e-m:e-p270:32:32-p271:32:32-p272:64:64-i64:64-i128:128-f80:128-n8:16:32:64-S128"
target triple = "x86_64-pc-linux-gnu"

%struct._zend_ini_entry = type { ptr, ptr, ptr, ptr, ptr, ptr, ptr, ptr, i32, i8, i8, i8 }

@.str.170 = private unnamed_addr constant [80 x i8] c"opcache.interned_strings_buffer must be greater than or equal to 0, %ld given.\0A\00", align 1
@.str.171 = private unnamed_addr constant [79 x i8] c"opcache.interned_strings_buffer must be less than or equal to %ld, %ld given.\0A\00", align 1

; Function Attrs: nounwind uwtable
define internal i32 @OnUpdateInternedStringsBuffer(ptr noundef %0, ptr noundef %1, ptr noundef %2, ptr noundef %3, ptr noundef %4, i32 noundef %5) #0 {
  %7 = alloca i32, align 4
  %8 = alloca ptr, align 8
  %9 = alloca ptr, align 8
  %10 = alloca ptr, align 8
  %11 = alloca ptr, align 8
  %12 = alloca ptr, align 8
  %13 = alloca i32, align 4
  %14 = alloca ptr, align 8
  %15 = alloca i64, align 8
  store ptr %0, ptr %8, align 8
  store ptr %1, ptr %9, align 8
  store ptr %2, ptr %10, align 8
  store ptr %3, ptr %11, align 8
  store ptr %4, ptr %12, align 8
  store i32 %5, ptr %13, align 4
  %16 = load ptr, ptr %11, align 8
  %17 = load ptr, ptr %10, align 8
  %18 = ptrtoint ptr %17 to i64
  %19 = getelementptr inbounds i8, ptr %16, i64 %18
  store ptr %19, ptr %14, align 8
  %20 = load ptr, ptr %9, align 8
  %21 = load ptr, ptr %8, align 8
  %22 = getelementptr inbounds %struct._zend_ini_entry, ptr %21, i32 0, i32 0
  %23 = load ptr, ptr %22, align 8
  %24 = call i64 @zend_ini_parse_quantity_warn(ptr noundef %20, ptr noundef %23)
  store i64 %24, ptr %15, align 8
  %25 = load i64, ptr %15, align 8
  %26 = icmp slt i64 %25, 0
  br i1 %26, label %27, label %29

27:                                               ; preds = %6
  %28 = load i64, ptr %15, align 8
  call void (i32, ptr, ...) @zend_accel_error(i32 noundef 2, ptr noundef @.str.170, i64 noundef %28)
  store i32 -1, ptr %7, align 4
  br label %37

29:                                               ; preds = %6
  %30 = load i64, ptr %15, align 8
  %31 = icmp sgt i64 %30, 4095
  br i1 %31, label %32, label %34

32:                                               ; preds = %29
  %33 = load i64, ptr %15, align 8
  call void (i32, ptr, ...) @zend_accel_error(i32 noundef 2, ptr noundef @.str.171, i64 noundef 4095, i64 noundef %33)
  store i32 -1, ptr %7, align 4
  br label %37

34:                                               ; preds = %29
  %35 = load i64, ptr %15, align 8
  %36 = load ptr, ptr %14, align 8
  store i64 %35, ptr %36, align 8
  store i32 0, ptr %7, align 4
  br label %37

37:                                               ; preds = %34, %32, %27
  %38 = load i32, ptr %7, align 4
  ret i32 %38
}