; Function Attrs: nounwind uwtable
define internal noundef i32 @OnUpdateInternedStringsBuffer(ptr nocapture noundef readonly %0, ptr noundef %1, ptr noundef %2, ptr nocapture noundef writeonly %3, ptr nocapture readnone %4, i32 %5) #0 {
  %7 = ptrtoint ptr %2 to i64
  %8 = getelementptr inbounds i8, ptr %3, i64 %7
  %9 = load ptr, ptr %0, align 8
  %10 = tail call i64 @zend_ini_parse_quantity_warn(ptr noundef %1, ptr noundef %9) #14
  %11 = icmp slt i64 %10, 0
  br i1 %11, label %12, label %13

12:                                               ; preds = %6
  tail call void (i32, ptr, ...) @zend_accel_error(i32 noundef 2, ptr noundef nonnull @.str.170, i64 noundef %10) #14
  br label %17

13:                                               ; preds = %6
  %14 = icmp ugt i64 %10, 4095
  br i1 %14, label %15, label %16

15:                                               ; preds = %13
  tail call void (i32, ptr, ...) @zend_accel_error(i32 noundef 2, ptr noundef nonnull @.str.171, i64 noundef 4095, i64 noundef %10) #14
  br label %17

16:                                               ; preds = %13
  store i64 %10, ptr %8, align 8
  br label %17

17:                                               ; preds = %16, %15, %12
  %.0 = phi i32 [ -1, %12 ], [ -1, %15 ], [ 0, %16 ]
  ret i32 %.0
}